target datalayout = "e-m:e-p270:32:32-p271:32:32-p272:64:64-i64:64-i128:128-f80:128-n8:16:32:64-S128"
target triple = "x86_64-pc-linux-gnu"

%struct.s_mmfile = type { ptr, i64 }
%struct.s_mmbuffer = type { ptr, i64 }

; Function Attrs: nounwind uwtable
define internal i32 @ll_binary_merge(ptr noundef %0, ptr noundef %1, ptr noundef %2, ptr noundef %3, ptr noundef %4, ptr noundef %5, ptr noundef %6, ptr noundef %7, ptr noundef %8, ptr noundef %9, i32 noundef %10) #0 {
  %12 = alloca ptr, align 8
  %13 = alloca ptr, align 8
  %14 = alloca ptr, align 8
  %15 = alloca ptr, align 8
  %16 = alloca ptr, align 8
  %17 = alloca ptr, align 8
  %18 = alloca ptr, align 8
  %19 = alloca ptr, align 8
  %20 = alloca ptr, align 8
  %21 = alloca ptr, align 8
  %22 = alloca i32, align 4
  %23 = alloca i32, align 4
  %24 = alloca ptr, align 8
  store ptr %0, ptr %12, align 8, !tbaa !29
  store ptr %1, ptr %13, align 8, !tbaa !9
  store ptr %2, ptr %14, align 8, !tbaa !11
  store ptr %3, ptr %15, align 8, !tbaa !13
  store ptr %4, ptr %16, align 8, !tbaa !11
  store ptr %5, ptr %17, align 8, !tbaa !13
  store ptr %6, ptr %18, align 8, !tbaa !11
  store ptr %7, ptr %19, align 8, !tbaa !13
  store ptr %8, ptr %20, align 8, !tbaa !11
  store ptr %9, ptr %21, align 8, !tbaa !17
  store i32 %10, ptr %22, align 4, !tbaa !19
  call void @llvm.lifetime.start.p0(i64 4, ptr %23) #10
  call void @llvm.lifetime.start.p0(i64 8, ptr %24) #10
  %25 = load ptr, ptr %21, align 8, !tbaa !17
  %26 = load i8, ptr %25, align 8
  %27 = and i8 %26, 1
  %28 = zext i8 %27 to i32
  %29 = icmp ne i32 %28, 0
  br i1 %29, label %30, label %32

30:                                               ; preds = %11
  %31 = load ptr, ptr %15, align 8, !tbaa !13
  store ptr %31, ptr %24, align 8, !tbaa !13
  store i32 0, ptr %23, align 4, !tbaa !19
  br label %45

32:                                               ; preds = %11
  %33 = load ptr, ptr %21, align 8, !tbaa !17
  %34 = load i8, ptr %33, align 8
  %35 = lshr i8 %34, 1
  %36 = and i8 %35, 3
  %37 = zext i8 %36 to i32
  switch i32 %37, label %38 [
    i32 1, label %40
    i32 2, label %42
  ]

38:                                               ; preds = %32
  store i32 2, ptr %23, align 4, !tbaa !19
  %39 = load ptr, ptr %17, align 8, !tbaa !13
  store ptr %39, ptr %24, align 8, !tbaa !13
  br label %44

40:                                               ; preds = %32
  store i32 0, ptr %23, align 4, !tbaa !19
  %41 = load ptr, ptr %17, align 8, !tbaa !13
  store ptr %41, ptr %24, align 8, !tbaa !13
  br label %44

42:                                               ; preds = %32
  store i32 0, ptr %23, align 4, !tbaa !19
  %43 = load ptr, ptr %19, align 8, !tbaa !13
  store ptr %43, ptr %24, align 8, !tbaa !13
  br label %44

44:                                               ; preds = %42, %40, %38
  br label %45

45:                                               ; preds = %44, %30
  %46 = load ptr, ptr %24, align 8, !tbaa !13
  %47 = getelementptr inbounds nuw %struct.s_mmfile, ptr %46, i32 0, i32 0
  %48 = load ptr, ptr %47, align 8, !tbaa !37
  %49 = load ptr, ptr %13, align 8, !tbaa !9
  %50 = getelementptr inbounds nuw %struct.s_mmbuffer, ptr %49, i32 0, i32 0
  store ptr %48, ptr %50, align 8, !tbaa !60
  %51 = load ptr, ptr %24, align 8, !tbaa !13
  %52 = getelementptr inbounds nuw %struct.s_mmfile, ptr %51, i32 0, i32 1
  %53 = load i64, ptr %52, align 8, !tbaa !39
  %54 = load ptr, ptr %13, align 8, !tbaa !9
  %55 = getelementptr inbounds nuw %struct.s_mmbuffer, ptr %54, i32 0, i32 1
  store i64 %53, ptr %55, align 8, !tbaa !62
  %56 = load ptr, ptr %24, align 8, !tbaa !13
  %57 = getelementptr inbounds nuw %struct.s_mmfile, ptr %56, i32 0, i32 0
  store ptr null, ptr %57, align 8, !tbaa !37
  %58 = load i32, ptr %23, align 4, !tbaa !19
  call void @llvm.lifetime.end.p0(i64 8, ptr %24) #10
  call void @llvm.lifetime.end.p0(i64 4, ptr %23) #10
  ret i32 %58
}