; Function Attrs: mustprogress nofree norecurse nosync nounwind willreturn memory(readwrite, inaccessiblemem: none) uwtable
define internal range(i32 0, 3) i32 @ll_binary_merge(ptr readnone captures(none) %0, ptr noundef writeonly captures(none) initializes((0, 16)) %1, ptr readnone captures(none) %2, ptr noundef captures(none) %3, ptr readnone captures(none) %4, ptr noundef captures(none) %5, ptr readnone captures(none) %6, ptr noundef captures(none) %7, ptr readnone captures(none) %8, ptr noundef readonly captures(none) %9, i32 %10) #12 {
  %12 = load i8, ptr %9, align 8
  %13 = and i8 %12, 1
  %.not = icmp eq i8 %13, 0
  br i1 %.not, label %14, label %19

14:                                               ; preds = %11
  %15 = lshr exact i8 %12, 1
  %16 = and i8 %15, 3
  switch i8 %16, label %19 [
    i8 1, label %17
    i8 2, label %18
  ]

17:                                               ; preds = %14
  br label %19

18:                                               ; preds = %14
  br label %19

19:                                               ; preds = %14, %11, %17, %18
  %.011 = phi i32 [ 0, %18 ], [ 0, %17 ], [ 0, %11 ], [ 2, %14 ]
  %.0 = phi ptr [ %7, %18 ], [ %5, %17 ], [ %3, %11 ], [ %5, %14 ]
  %20 = load ptr, ptr %.0, align 8, !tbaa !9
  store ptr %20, ptr %1, align 8, !tbaa !55
  %21 = getelementptr inbounds nuw i8, ptr %.0, i64 8
  %22 = load i64, ptr %21, align 8, !tbaa !13
  %23 = getelementptr inbounds nuw i8, ptr %1, i64 8
  store i64 %22, ptr %23, align 8, !tbaa !53
  store ptr null, ptr %.0, align 8, !tbaa !9
  ret i32 %.011
}